; Function Attrs: mustprogress uwtable
define void @_ZN7rocksdb28InMemoryStatsHistoryIterator4NextEv(ptr noundef nonnull align 8 dereferenceable(112) %0) unnamed_addr #6 align 2 {
  %2 = getelementptr inbounds nuw i8, ptr %0, i64 104
  %3 = load ptr, ptr %2, align 8, !tbaa !52
  %.not.i = icmp eq ptr %3, null
  br i1 %.not.i, label %_ZN7rocksdb28InMemoryStatsHistoryIterator21AdvanceIteratorByTimeEmm.exit, label %4

4:                                                ; preds = %1
  %5 = getelementptr inbounds nuw i8, ptr %0, i64 24
  %6 = load i64, ptr %5, align 8, !tbaa !53
  %7 = getelementptr inbounds nuw i8, ptr %0, i64 8
  %8 = load i64, ptr %7, align 8, !tbaa !54
  %9 = add i64 %8, 1
  %10 = getelementptr inbounds nuw i8, ptr %0, i64 32
  %11 = tail call noundef zeroext i1 @_ZN7rocksdb6DBImpl15FindStatsByTimeEmmPmPSt3mapINSt7__cxx1112basic_stringIcSt11char_traitsIcESaIcEEEmSt4lessIS8_ESaISt4pairIKS8_mEEE(ptr noundef nonnull align 64 dereferenceable(6868) %3, i64 noundef %9, i64 noundef %6, ptr noundef nonnull %7, ptr noundef nonnull %10)
  %12 = zext i1 %11 to i8
  br label %_ZN7rocksdb28InMemoryStatsHistoryIterator21AdvanceIteratorByTimeEmm.exit

_ZN7rocksdb28InMemoryStatsHistoryIterator21AdvanceIteratorByTimeEmm.exit: ; preds = %1, %4
  %.sink.i = phi i8 [ %12, %4 ], [ 0, %1 ]
  %13 = getelementptr inbounds nuw i8, ptr %0, i64 96
  store i8 %.sink.i, ptr %13, align 8, !tbaa !24
  ret void
}